; Function Attrs: mustprogress uwtable
define void @_ZNK5arrow10Decimal2568ToStringB5cxx11Ei(ptr noalias sret(%"class.std::__cxx11::basic_string") align 8 %agg.result, ptr nocapture noundef nonnull readonly align 8 dereferenceable(32) %this, i32 noundef %scale) local_unnamed_addr #0 align 2 personality ptr @__gxx_personality_v0 {
entry:
  %abs.i = alloca %"class.arrow::Decimal256", align 8
  %ref.tmp.i = alloca %"struct.std::array.3", align 8
  %ref.tmp9.i = alloca %"struct.std::array.3", align 8
  %ref.tmp = alloca %"class.std::allocator", align 1
  %0 = add i32 %scale, -77
  %1 = icmp ult i32 %0, -153
  br i1 %1, label %if.then, label %if.end

if.then:                                          ; preds = %entry
  call void @_ZNSaIcEC1Ev(ptr noundef nonnull align 1 dereferenceable(1) %ref.tmp) #18
  %call.i4 = invoke noundef ptr @_ZNSt7__cxx1112basic_stringIcSt11char_traitsIcESaIcEE13_M_local_dataEv(ptr noundef nonnull align 8 dereferenceable(32) %agg.result)
          to label %call.i.noexc unwind label %lpad

call.i.noexc:                                     ; preds = %if.then
  invoke void @_ZNSt7__cxx1112basic_stringIcSt11char_traitsIcESaIcEE12_Alloc_hiderC1EPcRKS3_(ptr noundef nonnull align 8 dereferenceable(8) %agg.result, ptr noundef %call.i4, ptr noundef nonnull align 1 dereferenceable(1) %ref.tmp)
          to label %.noexc unwind label %lpad

.noexc:                                           ; preds = %call.i.noexc
  invoke void @_ZNSt7__cxx1112basic_stringIcSt11char_traitsIcESaIcEE12_M_constructIPKcEEvT_S8_St20forward_iterator_tag(ptr noundef nonnull align 8 dereferenceable(32) %agg.result, ptr noundef nonnull @.str.7, ptr noundef nonnull getelementptr inbounds ([53 x i8], ptr @.str.7, i64 0, i64 52))
          to label %invoke.cont unwind label %lpad.i

lpad.i:                                           ; preds = %.noexc
  %2 = landingpad { ptr, i32 }
          cleanup
  call void @_ZNSaIcED2Ev(ptr noundef nonnull align 1 dereferenceable(1) %agg.result) #18
  br label %lpad.body

invoke.cont:                                      ; preds = %.noexc
  call void @_ZNSaIcED1Ev(ptr noundef nonnull align 1 dereferenceable(1) %ref.tmp) #18
  br label %return

lpad:                                             ; preds = %call.i.noexc, %if.then
  %3 = landingpad { ptr, i32 }
          cleanup
  br label %lpad.body

lpad.body:                                        ; preds = %lpad.i, %lpad
  %eh.lpad-body = phi { ptr, i32 } [ %3, %lpad ], [ %2, %lpad.i ]
  call void @_ZNSaIcED1Ev(ptr noundef nonnull align 1 dereferenceable(1) %ref.tmp) #18
  br label %common.resume

if.end:                                           ; preds = %entry
  call void @llvm.lifetime.start.p0(i64 32, ptr nonnull %abs.i)
  call void @llvm.lifetime.start.p0(i64 32, ptr nonnull %ref.tmp.i)
  call void @llvm.lifetime.start.p0(i64 32, ptr nonnull %ref.tmp9.i)
  tail call void @_ZNSt7__cxx1112basic_stringIcSt11char_traitsIcESaIcEEC1Ev(ptr noundef nonnull align 8 dereferenceable(32) %agg.result) #18
  %arrayidx.i.i.i.i = getelementptr inbounds i8, ptr %this, i64 24
  %4 = load i64, ptr %arrayidx.i.i.i.i, align 8, !noalias !84
  %cmp.i.i = icmp slt i64 %4, 0
  br i1 %cmp.i.i, label %if.then.i, label %if.else.i

if.then.i:                                        ; preds = %if.end
  invoke void @_ZNSt7__cxx1112basic_stringIcSt11char_traitsIcESaIcEE9push_backEc(ptr noundef nonnull align 8 dereferenceable(32) %agg.result, i8 noundef signext 45)
          to label %invoke.cont2.i unwind label %lpad.i5

invoke.cont2.i:                                   ; preds = %if.then.i
  call void @llvm.memcpy.p0.p0.i64(ptr noundef nonnull align 8 dereferenceable(32) %abs.i, ptr noundef nonnull align 8 dereferenceable(32) %this, i64 32, i1 false), !noalias !84
  %call4.i = invoke noundef nonnull align 8 dereferenceable(32) ptr @_ZN5arrow15BasicDecimal2566NegateEv(ptr noundef nonnull align 8 dereferenceable(32) %abs.i)
          to label %invoke.cont3.i unwind label %lpad.i5

invoke.cont3.i:                                   ; preds = %invoke.cont2.i
  call void @llvm.memcpy.p0.p0.i64(ptr noundef nonnull align 8 dereferenceable(32) %ref.tmp.i, ptr noundef nonnull align 8 dereferenceable(32) %abs.i, i64 32, i1 false), !noalias !84
  br label %if.else.invoke.i

common.resume:                                    ; preds = %lpad.body, %lpad4, %lpad.i5
  %common.resume.op = phi { ptr, i32 } [ %5, %lpad.i5 ], [ %eh.lpad-body, %lpad.body ], [ %7, %lpad4 ]
  resume { ptr, i32 } %common.resume.op

lpad.i5:                                          ; preds = %if.else.invoke.i, %invoke.cont2.i, %if.then.i
  %5 = landingpad { ptr, i32 }
          cleanup
  call void @_ZNSt7__cxx1112basic_stringIcSt11char_traitsIcESaIcEED1Ev(ptr noundef nonnull align 8 dereferenceable(32) %agg.result) #18
  br label %common.resume

if.else.i:                                        ; preds = %if.end
  call void @llvm.memcpy.p0.p0.i64(ptr noundef nonnull align 8 dereferenceable(32) %ref.tmp9.i, ptr noundef nonnull align 8 dereferenceable(32) %this, i64 32, i1 false), !noalias !84
  br label %if.else.invoke.i

if.else.invoke.i:                                 ; preds = %if.else.i, %invoke.cont3.i
  %6 = phi ptr [ %ref.tmp9.i, %if.else.i ], [ %ref.tmp.i, %invoke.cont3.i ]
  invoke fastcc void @_ZN5arrowL31AppendLittleEndianArrayToStringILm4EEEvRKSt5arrayImXT_EEPNSt7__cxx1112basic_stringIcSt11char_traitsIcESaIcEEE(ptr noundef nonnull align 8 dereferenceable(32) %6, ptr noundef nonnull %agg.result)
          to label %_ZNK5arrow10Decimal25615ToIntegerStringB5cxx11Ev.exit unwind label %lpad.i5

_ZNK5arrow10Decimal25615ToIntegerStringB5cxx11Ev.exit: ; preds = %if.else.invoke.i
  call void @llvm.lifetime.end.p0(i64 32, ptr nonnull %abs.i)
  call void @llvm.lifetime.end.p0(i64 32, ptr nonnull %ref.tmp.i)
  call void @llvm.lifetime.end.p0(i64 32, ptr nonnull %ref.tmp9.i)
  invoke fastcc void @_ZN5arrowL28AdjustIntegerStringWithScaleEiPNSt7__cxx1112basic_stringIcSt11char_traitsIcESaIcEEE(i32 noundef %scale, ptr noundef nonnull %agg.result)
          to label %return unwind label %lpad4

lpad4:                                            ; preds = %_ZNK5arrow10Decimal25615ToIntegerStringB5cxx11Ev.exit
  %7 = landingpad { ptr, i32 }
          cleanup
  call void @_ZNSt7__cxx1112basic_stringIcSt11char_traitsIcESaIcEED1Ev(ptr noundef nonnull align 8 dereferenceable(32) %agg.result) #18
  br label %common.resume

return:                                           ; preds = %_ZNK5arrow10Decimal25615ToIntegerStringB5cxx11Ev.exit, %invoke.cont
  ret void
}